; Function Attrs: mustprogress uwtable
define hidden void @_ZN2cv12cpu_baseline7gemm32fEPKfmS2_mfS2_mfPfmiiii(ptr noundef %0, i64 noundef %1, ptr noundef %2, i64 noundef %3, float noundef %4, ptr noundef %5, i64 noundef %6, float noundef %7, ptr noundef %8, i64 noundef %9, i32 noundef %10, i32 noundef %11, i32 noundef %12, i32 noundef %13) local_unnamed_addr #3 personality ptr @__gxx_personality_v0 {
  %15 = alloca %"class.cv::utils::trace::details::Region", align 8
  call void @llvm.lifetime.start.p0(i64 16, ptr nonnull %15) #27
  call void @_ZN2cv5utils5trace7details6RegionC1ERKNS3_21LocationStaticStorageE(ptr noundef nonnull align 8 dereferenceable(12) %15, ptr noundef nonnull align 8 dereferenceable(32) @_ZZN2cv12cpu_baseline7gemm32fEPKfmS2_mfS2_mfPfmiiiiE26__cv_trace_location_fn1344)
  invoke fastcc void @_ZN2cv12cpu_baselineL12callGemmImplIfEEvPKT_mS4_mS2_S4_mS2_PS2_miiiii(ptr noundef %0, i64 noundef %1, ptr noundef %2, i64 noundef %3, float noundef %4, ptr noundef %5, i64 noundef %6, float noundef %7, ptr noundef %8, i64 noundef %9, i32 noundef %10, i32 noundef %11, i32 noundef %12, i32 noundef %13, i32 noundef 5)
          to label %16 unwind label %23

16:                                               ; preds = %14
  %17 = getelementptr inbounds nuw i8, ptr %15, i64 8
  %18 = load i32, ptr %17, align 8, !tbaa !3
  %.not.i = icmp eq i32 %18, 0
  br i1 %.not.i, label %_ZN2cv5utils5trace7details6RegionD2Ev.exit, label %19

19:                                               ; preds = %16
  invoke void @_ZN2cv5utils5trace7details6Region7destroyEv(ptr noundef nonnull align 8 dereferenceable(12) %15)
          to label %_ZN2cv5utils5trace7details6RegionD2Ev.exit unwind label %20

20:                                               ; preds = %19
  %21 = landingpad { ptr, i32 }
          catch ptr null
  %22 = extractvalue { ptr, i32 } %21, 0
  call void @__clang_call_terminate(ptr %22) #28
  unreachable

_ZN2cv5utils5trace7details6RegionD2Ev.exit:       ; preds = %16, %19
  call void @llvm.lifetime.end.p0(i64 16, ptr nonnull %15) #27
  ret void

23:                                               ; preds = %14
  %24 = landingpad { ptr, i32 }
          cleanup
  call void @_ZN2cv5utils5trace7details6RegionD2Ev(ptr noundef nonnull align 8 dereferenceable(12) %15) #27
  call void @llvm.lifetime.end.p0(i64 16, ptr nonnull %15) #27
  resume { ptr, i32 } %24
}